target datalayout = "e-m:e-p270:32:32-p271:32:32-p272:64:64-i64:64-i128:128-f80:128-n8:16:32:64-S128"
target triple = "x86_64-pc-linux-gnu"

%"struct.cv::Ptr" = type { %"class.std::shared_ptr" }
%"class.std::shared_ptr" = type { %"class.std::__shared_ptr" }
%"class.std::__shared_ptr" = type { ptr, %"class.std::__shared_count" }
%"class.std::__shared_count" = type { ptr }
%"class.cv::detail::tracking::TrackerModel" = type <{ ptr, %"class.std::vector", %"struct.cv::Ptr", %"class.std::vector.0", %"class.std::vector.5", i32, [4 x i8] }>
%"class.std::vector" = type { %"struct.std::_Vector_base" }
%"struct.std::_Vector_base" = type { %"struct.std::_Vector_base<std::vector<std::pair<cv::Ptr<cv::detail::tracking::TrackerTargetState>, float>>, std::allocator<std::vector<std::pair<cv::Ptr<cv::detail::tracking::TrackerTargetState>, float>>>>::_Vector_impl" }
%"struct.std::_Vector_base<std::vector<std::pair<cv::Ptr<cv::detail::tracking::TrackerTargetState>, float>>, std::allocator<std::vector<std::pair<cv::Ptr<cv::detail::tracking::TrackerTargetState>, float>>>>::_Vector_impl" = type { %"struct.std::_Vector_base<std::vector<std::pair<cv::Ptr<cv::detail::tracking::TrackerTargetState>, float>>, std::allocator<std::vector<std::pair<cv::Ptr<cv::detail::tracking::TrackerTargetState>, float>>>>::_Vector_impl_data" }
%"struct.std::_Vector_base<std::vector<std::pair<cv::Ptr<cv::detail::tracking::TrackerTargetState>, float>>, std::allocator<std::vector<std::pair<cv::Ptr<cv::detail::tracking::TrackerTargetState>, float>>>>::_Vector_impl_data" = type { ptr, ptr, ptr }
%"class.std::vector.0" = type { %"struct.std::_Vector_base.1" }
%"struct.std::_Vector_base.1" = type { %"struct.std::_Vector_base<std::pair<cv::Ptr<cv::detail::tracking::TrackerTargetState>, float>, std::allocator<std::pair<cv::Ptr<cv::detail::tracking::TrackerTargetState>, float>>>::_Vector_impl" }
%"struct.std::_Vector_base<std::pair<cv::Ptr<cv::detail::tracking::TrackerTargetState>, float>, std::allocator<std::pair<cv::Ptr<cv::detail::tracking::TrackerTargetState>, float>>>::_Vector_impl" = type { %"struct.std::_Vector_base<std::pair<cv::Ptr<cv::detail::tracking::TrackerTargetState>, float>, std::allocator<std::pair<cv::Ptr<cv::detail::tracking::TrackerTargetState>, float>>>::_Vector_impl_data" }
%"struct.std::_Vector_base<std::pair<cv::Ptr<cv::detail::tracking::TrackerTargetState>, float>, std::allocator<std::pair<cv::Ptr<cv::detail::tracking::TrackerTargetState>, float>>>::_Vector_impl_data" = type { ptr, ptr, ptr }
%"class.std::vector.5" = type { %"struct.std::_Vector_base.6" }
%"struct.std::_Vector_base.6" = type { %"struct.std::_Vector_base<cv::Ptr<cv::detail::tracking::TrackerTargetState>, std::allocator<cv::Ptr<cv::detail::tracking::TrackerTargetState>>>::_Vector_impl" }
%"struct.std::_Vector_base<cv::Ptr<cv::detail::tracking::TrackerTargetState>, std::allocator<cv::Ptr<cv::detail::tracking::TrackerTargetState>>>::_Vector_impl" = type { %"struct.std::_Vector_base<cv::Ptr<cv::detail::tracking::TrackerTargetState>, std::allocator<cv::Ptr<cv::detail::tracking::TrackerTargetState>>>::_Vector_impl_data" }
%"struct.std::_Vector_base<cv::Ptr<cv::detail::tracking::TrackerTargetState>, std::allocator<cv::Ptr<cv::detail::tracking::TrackerTargetState>>>::_Vector_impl_data" = type { ptr, ptr, ptr }
%"struct.cv::Ptr.21" = type { %"class.std::shared_ptr.22" }
%"class.std::shared_ptr.22" = type { %"class.std::__shared_ptr.23" }
%"class.std::__shared_ptr.23" = type { ptr, %"class.std::__shared_count" }
%"class.std::_Sp_counted_base" = type { ptr, i32, i32 }
%"struct.std::pair" = type <{ %"struct.cv::Ptr.21", float, [4 x i8] }>

@__libc_single_threaded = external global i8, align 1

; Function Attrs: alwaysinline mustprogress nounwind uwtable
define linkonce_odr noundef i32 @_ZN9__gnu_cxx18__exchange_and_addEPVii(ptr noundef %0, i32 noundef %1) #13 comdat {
  %3 = alloca ptr, align 8
  %4 = alloca i32, align 4
  %5 = alloca i32, align 4
  %6 = alloca i32, align 4
  store ptr %0, ptr %3, align 8, !tbaa !136
  store i32 %1, ptr %4, align 4, !tbaa !52
  %7 = load ptr, ptr %3, align 8, !tbaa !136
  %8 = load i32, ptr %4, align 4, !tbaa !52
  store i32 %8, ptr %5, align 4, !tbaa !52
  %9 = load i32, ptr %5, align 4
  %10 = atomicrmw volatile add ptr %7, i32 %9 acq_rel, align 4
  store i32 %10, ptr %6, align 4
  %11 = load i32, ptr %6, align 4, !tbaa !52
  ret i32 %11
}

; Function Attrs: alwaysinline mustprogress nounwind uwtable
define linkonce_odr noundef i32 @_ZN9__gnu_cxx25__exchange_and_add_singleEPii(ptr noundef %0, i32 noundef %1) #13 comdat {
  %3 = alloca ptr, align 8
  %4 = alloca i32, align 4
  %5 = alloca i32, align 4
  store ptr %0, ptr %3, align 8, !tbaa !136
  store i32 %1, ptr %4, align 4, !tbaa !52
  call void @llvm.lifetime.start.p0(i64 4, ptr %5) #18
  %6 = load ptr, ptr %3, align 8, !tbaa !136
  %7 = load i32, ptr %6, align 4, !tbaa !52
  store i32 %7, ptr %5, align 4, !tbaa !52
  %8 = load i32, ptr %4, align 4, !tbaa !52
  %9 = load ptr, ptr %3, align 8, !tbaa !136
  %10 = load i32, ptr %9, align 4, !tbaa !52
  %11 = add nsw i32 %10, %8
  store i32 %11, ptr %9, align 4, !tbaa !52
  %12 = load i32, ptr %5, align 4, !tbaa !52
  call void @llvm.lifetime.end.p0(i64 4, ptr %5) #18
  ret i32 %12
}

; Function Attrs: alwaysinline mustprogress nounwind uwtable
define linkonce_odr noundef zeroext i1 @_ZN9__gnu_cxx20__is_single_threadedEv() #13 comdat {
  %1 = load i8, ptr @__libc_single_threaded, align 1, !tbaa !138
  %2 = icmp ne i8 %1, 0
  ret i1 %2
}

; Function Attrs: alwaysinline mustprogress uwtable
define linkonce_odr noundef i32 @_ZN9__gnu_cxx27__exchange_and_add_dispatchEPii(ptr noundef %0, i32 noundef %1) #9 comdat {
  %3 = alloca i32, align 4
  %4 = alloca ptr, align 8
  %5 = alloca i32, align 4
  store ptr %0, ptr %4, align 8, !tbaa !136
  store i32 %1, ptr %5, align 4, !tbaa !52
  %6 = call noundef zeroext i1 @_ZN9__gnu_cxx20__is_single_threadedEv() #18
  br i1 %6, label %7, label %11

7:                                                ; preds = %2
  %8 = load ptr, ptr %4, align 8, !tbaa !136
  %9 = load i32, ptr %5, align 4, !tbaa !52
  %10 = call noundef i32 @_ZN9__gnu_cxx25__exchange_and_add_singleEPii(ptr noundef %8, i32 noundef %9)
  store i32 %10, ptr %3, align 4
  br label %15

11:                                               ; preds = %2
  %12 = load ptr, ptr %4, align 8, !tbaa !136
  %13 = load i32, ptr %5, align 4, !tbaa !52
  %14 = call noundef i32 @_ZN9__gnu_cxx18__exchange_and_addEPVii(ptr noundef %12, i32 noundef %13)
  store i32 %14, ptr %3, align 4
  br label %15

15:                                               ; preds = %11, %7
  %16 = load i32, ptr %3, align 4
  ret i32 %16
}

; Function Attrs: inlinehint mustprogress nounwind uwtable
define linkonce_odr hidden void @_ZNSt16_Sp_counted_baseILN9__gnu_cxx12_Lock_policyE2EE10_M_releaseEv(ptr noundef nonnull align 8 dereferenceable(16) %0) #2 comdat align 2 personality ptr @__gxx_personality_v0 {
  %2 = alloca ptr, align 8
  %3 = alloca i8, align 1
  %4 = alloca i8, align 1
  %5 = alloca i8, align 1
  %6 = alloca i32, align 4
  %7 = alloca i32, align 4
  %8 = alloca i64, align 8
  %9 = alloca ptr, align 8
  %10 = alloca i64, align 8
  %11 = alloca i32, align 4
  store ptr %0, ptr %2, align 8, !tbaa !126
  %12 = load ptr, ptr %2, align 8
  call void @llvm.lifetime.start.p0(i64 1, ptr %3) #18
  store i8 1, ptr %3, align 1, !tbaa !127
  call void @llvm.lifetime.start.p0(i64 1, ptr %4) #18
  store i8 1, ptr %4, align 1, !tbaa !127
  call void @llvm.lifetime.start.p0(i64 1, ptr %5) #18
  store i8 1, ptr %5, align 1, !tbaa !127
  call void @llvm.lifetime.start.p0(i64 4, ptr %6) #18
  store i32 32, ptr %6, align 4, !tbaa !52
  call void @llvm.lifetime.start.p0(i64 4, ptr %7) #18
  store i32 32, ptr %7, align 4, !tbaa !52
  call void @llvm.lifetime.start.p0(i64 8, ptr %8) #18
  store i64 4294967297, ptr %8, align 8, !tbaa !129
  call void @llvm.lifetime.start.p0(i64 8, ptr %9) #18
  %13 = getelementptr inbounds nuw %"class.std::_Sp_counted_base", ptr %12, i32 0, i32 1
  store ptr %13, ptr %9, align 8, !tbaa !131
  %14 = load ptr, ptr %9, align 8, !tbaa !131
  %15 = load atomic i64, ptr %14 acquire, align 8
  store i64 %15, ptr %10, align 8
  %16 = load i64, ptr %10, align 8, !tbaa !129
  %17 = icmp eq i64 %16, 4294967297
  br i1 %17, label %18, label %27

18:                                               ; preds = %1
  %19 = getelementptr inbounds nuw %"class.std::_Sp_counted_base", ptr %12, i32 0, i32 1
  store i32 0, ptr %19, align 8, !tbaa !133
  %20 = getelementptr inbounds nuw %"class.std::_Sp_counted_base", ptr %12, i32 0, i32 2
  store i32 0, ptr %20, align 4, !tbaa !135
  %21 = load ptr, ptr %12, align 8, !tbaa !8
  %22 = getelementptr inbounds ptr, ptr %21, i64 2
  %23 = load ptr, ptr %22, align 8
  call void %23(ptr noundef nonnull align 8 dereferenceable(16) %12) #18
  %24 = load ptr, ptr %12, align 8, !tbaa !8
  %25 = getelementptr inbounds ptr, ptr %24, i64 3
  %26 = load ptr, ptr %25, align 8
  call void %26(ptr noundef nonnull align 8 dereferenceable(16) %12) #18
  store i32 1, ptr %11, align 4
  br label %35

27:                                               ; preds = %1
  %28 = getelementptr inbounds nuw %"class.std::_Sp_counted_base", ptr %12, i32 0, i32 1
  %29 = invoke noundef i32 @_ZN9__gnu_cxx27__exchange_and_add_dispatchEPii(ptr noundef %28, i32 noundef -1)
          to label %30 unwind label %41

30:                                               ; preds = %27
  %31 = icmp eq i32 %29, 1
  %32 = call i1 @llvm.expect.i1(i1 %31, i1 false)
  br i1 %32, label %33, label %34

33:                                               ; preds = %30
  call void @_ZNSt16_Sp_counted_baseILN9__gnu_cxx12_Lock_policyE2EE24_M_release_last_use_coldEv(ptr noundef nonnull align 8 dereferenceable(16) %12) #18
  store i32 1, ptr %11, align 4
  br label %35

34:                                               ; preds = %30
  store i32 0, ptr %11, align 4
  br label %35

35:                                               ; preds = %34, %33, %18
  call void @llvm.lifetime.end.p0(i64 8, ptr %9) #18
  call void @llvm.lifetime.end.p0(i64 8, ptr %8) #18
  call void @llvm.lifetime.end.p0(i64 4, ptr %7) #18
  call void @llvm.lifetime.end.p0(i64 4, ptr %6) #18
  %36 = load i32, ptr %11, align 4
  switch i32 %36, label %38 [
    i32 0, label %37
  ]

37:                                               ; preds = %35
  store i32 0, ptr %11, align 4
  br label %38

38:                                               ; preds = %37, %35
  call void @llvm.lifetime.end.p0(i64 1, ptr %5) #18
  call void @llvm.lifetime.end.p0(i64 1, ptr %4) #18
  call void @llvm.lifetime.end.p0(i64 1, ptr %3) #18
  %39 = load i32, ptr %11, align 4
  switch i32 %39, label %44 [
    i32 0, label %40
    i32 1, label %40
  ]

40:                                               ; preds = %38, %38
  ret void

41:                                               ; preds = %27
  %42 = landingpad { ptr, i32 }
          catch ptr null
  %43 = extractvalue { ptr, i32 } %42, 0
  call void @__clang_call_terminate(ptr %43) #19
  unreachable

44:                                               ; preds = %38
  unreachable
}

; Function Attrs: mustprogress nounwind uwtable
define linkonce_odr hidden void @_ZNSt14__shared_countILN9__gnu_cxx12_Lock_policyE2EED2Ev(ptr noundef nonnull align 8 dereferenceable(8) %0) unnamed_addr #1 comdat align 2 {
  %2 = alloca ptr, align 8
  store ptr %0, ptr %2, align 8, !tbaa !123
  %3 = load ptr, ptr %2, align 8
  %4 = getelementptr inbounds nuw %"class.std::__shared_count", ptr %3, i32 0, i32 0
  %5 = load ptr, ptr %4, align 8, !tbaa !125
  %6 = icmp ne ptr %5, null
  br i1 %6, label %7, label %10

7:                                                ; preds = %1
  %8 = getelementptr inbounds nuw %"class.std::__shared_count", ptr %3, i32 0, i32 0
  %9 = load ptr, ptr %8, align 8, !tbaa !125
  call void @_ZNSt16_Sp_counted_baseILN9__gnu_cxx12_Lock_policyE2EE10_M_releaseEv(ptr noundef nonnull align 8 dereferenceable(16) %9) #18
  br label %10

10:                                               ; preds = %7, %1
  ret void
}

; Function Attrs: mustprogress nounwind uwtable
define linkonce_odr hidden void @_ZNSt12__shared_ptrIN2cv6detail8tracking18TrackerTargetStateELN9__gnu_cxx12_Lock_policyE2EED2Ev(ptr noundef nonnull align 8 dereferenceable(16) %0) unnamed_addr #1 comdat align 2 {
  %2 = alloca ptr, align 8
  store ptr %0, ptr %2, align 8, !tbaa !79
  %3 = load ptr, ptr %2, align 8
  %4 = getelementptr inbounds nuw %"class.std::__shared_ptr.23", ptr %3, i32 0, i32 1
  call void @_ZNSt14__shared_countILN9__gnu_cxx12_Lock_policyE2EED2Ev(ptr noundef nonnull align 8 dereferenceable(8) %4) #18
  ret void
}

; Function Attrs: inlinehint mustprogress nounwind uwtable
define linkonce_odr hidden void @_ZNSt4pairIN2cv3PtrINS0_6detail8tracking18TrackerTargetStateEEEfED2Ev(ptr noundef nonnull align 8 dereferenceable(20) %0) unnamed_addr #2 comdat align 2 {
  %2 = alloca ptr, align 8
  store ptr %0, ptr %2, align 8, !tbaa !159
  %3 = load ptr, ptr %2, align 8
  %4 = getelementptr inbounds nuw %"struct.std::pair", ptr %3, i32 0, i32 0
  call void @_ZNSt12__shared_ptrIN2cv6detail8tracking18TrackerTargetStateELN9__gnu_cxx12_Lock_policyE2EED2Ev(ptr noundef nonnull align 8 dereferenceable(16) %4) #18
  ret void
}

; Function Attrs: inlinehint mustprogress nounwind uwtable
define linkonce_odr hidden void @_ZSt8_DestroyISt4pairIN2cv3PtrINS1_6detail8tracking18TrackerTargetStateEEEfEEvPT_(ptr noundef %0) #2 comdat {
  %2 = alloca ptr, align 8
  store ptr %0, ptr %2, align 8, !tbaa !159
  %3 = load ptr, ptr %2, align 8, !tbaa !159
  call void @_ZNSt4pairIN2cv3PtrINS0_6detail8tracking18TrackerTargetStateEEEfED2Ev(ptr noundef nonnull align 8 dereferenceable(20) %3) #18
  ret void
}

; Function Attrs: mustprogress uwtable
define linkonce_odr hidden void @_ZNSt12_Destroy_auxILb0EE9__destroyIPSt4pairIN2cv3PtrINS3_6detail8tracking18TrackerTargetStateEEEfEEEvT_SB_(ptr noundef %0, ptr noundef %1) #0 comdat align 2 {
  %3 = alloca ptr, align 8
  %4 = alloca ptr, align 8
  store ptr %0, ptr %3, align 8, !tbaa !159
  store ptr %1, ptr %4, align 8, !tbaa !159
  br label %5

5:                                                ; preds = %11, %2
  %6 = load ptr, ptr %3, align 8, !tbaa !159
  %7 = load ptr, ptr %4, align 8, !tbaa !159
  %8 = icmp ne ptr %6, %7
  br i1 %8, label %9, label %14

9:                                                ; preds = %5
  %10 = load ptr, ptr %3, align 8, !tbaa !159
  call void @_ZSt8_DestroyISt4pairIN2cv3PtrINS1_6detail8tracking18TrackerTargetStateEEEfEEvPT_(ptr noundef %10)
  br label %11

11:                                               ; preds = %9
  %12 = load ptr, ptr %3, align 8, !tbaa !159
  %13 = getelementptr inbounds nuw %"struct.std::pair", ptr %12, i32 1
  store ptr %13, ptr %3, align 8, !tbaa !159
  br label %5, !llvm.loop !161

14:                                               ; preds = %5
  ret void
}

; Function Attrs: inlinehint mustprogress uwtable
define linkonce_odr hidden void @_ZSt8_DestroyIPSt4pairIN2cv3PtrINS1_6detail8tracking18TrackerTargetStateEEEfEEvT_S9_(ptr noundef %0, ptr noundef %1) #16 comdat {
  %3 = alloca ptr, align 8
  %4 = alloca ptr, align 8
  store ptr %0, ptr %3, align 8, !tbaa !159
  store ptr %1, ptr %4, align 8, !tbaa !159
  %5 = load ptr, ptr %3, align 8, !tbaa !159
  %6 = load ptr, ptr %4, align 8, !tbaa !159
  call void @_ZNSt12_Destroy_auxILb0EE9__destroyIPSt4pairIN2cv3PtrINS3_6detail8tracking18TrackerTargetStateEEEfEEEvT_SB_(ptr noundef %5, ptr noundef %6)
  ret void
}

; Function Attrs: noinline noreturn nounwind uwtable
define linkonce_odr hidden void @__clang_call_terminate(ptr noundef %0) #10 comdat {
  %2 = call ptr @__cxa_begin_catch(ptr %0) #18
  call void @_ZSt9terminatev() #19
  unreachable
}

; Function Attrs: inlinehint mustprogress uwtable
define linkonce_odr hidden void @_ZSt8_DestroyIPSt4pairIN2cv3PtrINS1_6detail8tracking18TrackerTargetStateEEEfES7_EvT_S9_RSaIT0_E(ptr noundef %0, ptr noundef %1, ptr noundef nonnull align 1 dereferenceable(1) %2) #16 comdat {
  %4 = alloca ptr, align 8
  %5 = alloca ptr, align 8
  %6 = alloca ptr, align 8
  store ptr %0, ptr %4, align 8, !tbaa !159
  store ptr %1, ptr %5, align 8, !tbaa !159
  store ptr %2, ptr %6, align 8, !tbaa !109
  %7 = load ptr, ptr %4, align 8, !tbaa !159
  %8 = load ptr, ptr %5, align 8, !tbaa !159
  call void @_ZSt8_DestroyIPSt4pairIN2cv3PtrINS1_6detail8tracking18TrackerTargetStateEEEfEEvT_S9_(ptr noundef %7, ptr noundef %8)
  ret void
}

; Function Attrs: mustprogress nounwind uwtable
define linkonce_odr hidden noundef nonnull align 1 dereferenceable(1) ptr @_ZNSt12_Vector_baseISt4pairIN2cv3PtrINS1_6detail8tracking18TrackerTargetStateEEEfESaIS7_EE19_M_get_Tp_allocatorEv(ptr noundef nonnull align 8 dereferenceable(24) %0) #1 comdat align 2 {
  %2 = alloca ptr, align 8
  store ptr %0, ptr %2, align 8, !tbaa !105
  %3 = load ptr, ptr %2, align 8
  %4 = getelementptr inbounds nuw %"struct.std::_Vector_base.1", ptr %3, i32 0, i32 0
  ret ptr %4
}

; Function Attrs: mustprogress nounwind uwtable
define linkonce_odr hidden void @_ZNSt6vectorISt4pairIN2cv3PtrINS1_6detail8tracking18TrackerTargetStateEEEfESaIS7_EE15_M_erase_at_endEPS7_(ptr noundef nonnull align 8 dereferenceable(24) %0, ptr noundef %1) #1 comdat align 2 personality ptr @__gxx_personality_v0 {
  %3 = alloca ptr, align 8
  %4 = alloca ptr, align 8
  %5 = alloca i64, align 8
  store ptr %0, ptr %3, align 8, !tbaa !38
  store ptr %1, ptr %4, align 8, !tbaa !159
  %6 = load ptr, ptr %3, align 8
  call void @llvm.lifetime.start.p0(i64 8, ptr %5) #18
  %7 = getelementptr inbounds nuw %"struct.std::_Vector_base.1", ptr %6, i32 0, i32 0
  %8 = getelementptr inbounds nuw %"struct.std::_Vector_base<std::pair<cv::Ptr<cv::detail::tracking::TrackerTargetState>, float>, std::allocator<std::pair<cv::Ptr<cv::detail::tracking::TrackerTargetState>, float>>>::_Vector_impl_data", ptr %7, i32 0, i32 1
  %9 = load ptr, ptr %8, align 8, !tbaa !46
  %10 = load ptr, ptr %4, align 8, !tbaa !159
  %11 = ptrtoint ptr %9 to i64
  %12 = ptrtoint ptr %10 to i64
  %13 = sub i64 %11, %12
  %14 = sdiv exact i64 %13, 24
  store i64 %14, ptr %5, align 8, !tbaa !59
  %15 = load i64, ptr %5, align 8, !tbaa !59
  %16 = icmp ne i64 %15, 0
  br i1 %16, label %17, label %27

17:                                               ; preds = %2
  %18 = load ptr, ptr %4, align 8, !tbaa !159
  %19 = getelementptr inbounds nuw %"struct.std::_Vector_base.1", ptr %6, i32 0, i32 0
  %20 = getelementptr inbounds nuw %"struct.std::_Vector_base<std::pair<cv::Ptr<cv::detail::tracking::TrackerTargetState>, float>, std::allocator<std::pair<cv::Ptr<cv::detail::tracking::TrackerTargetState>, float>>>::_Vector_impl_data", ptr %19, i32 0, i32 1
  %21 = load ptr, ptr %20, align 8, !tbaa !46
  %22 = call noundef nonnull align 1 dereferenceable(1) ptr @_ZNSt12_Vector_baseISt4pairIN2cv3PtrINS1_6detail8tracking18TrackerTargetStateEEEfESaIS7_EE19_M_get_Tp_allocatorEv(ptr noundef nonnull align 8 dereferenceable(24) %6) #18
  invoke void @_ZSt8_DestroyIPSt4pairIN2cv3PtrINS1_6detail8tracking18TrackerTargetStateEEEfES7_EvT_S9_RSaIT0_E(ptr noundef %18, ptr noundef %21, ptr noundef nonnull align 1 dereferenceable(1) %22)
          to label %23 unwind label %28

23:                                               ; preds = %17
  %24 = load ptr, ptr %4, align 8, !tbaa !159
  %25 = getelementptr inbounds nuw %"struct.std::_Vector_base.1", ptr %6, i32 0, i32 0
  %26 = getelementptr inbounds nuw %"struct.std::_Vector_base<std::pair<cv::Ptr<cv::detail::tracking::TrackerTargetState>, float>, std::allocator<std::pair<cv::Ptr<cv::detail::tracking::TrackerTargetState>, float>>>::_Vector_impl_data", ptr %25, i32 0, i32 1
  store ptr %24, ptr %26, align 8, !tbaa !46
  br label %27

27:                                               ; preds = %23, %2
  call void @llvm.lifetime.end.p0(i64 8, ptr %5) #18
  ret void

28:                                               ; preds = %17
  %29 = landingpad { ptr, i32 }
          catch ptr null
  %30 = extractvalue { ptr, i32 } %29, 0
  call void @__clang_call_terminate(ptr %30) #19
  unreachable
}

; Function Attrs: mustprogress nounwind uwtable
define linkonce_odr hidden void @_ZNSt6vectorISt4pairIN2cv3PtrINS1_6detail8tracking18TrackerTargetStateEEEfESaIS7_EE5clearEv(ptr noundef nonnull align 8 dereferenceable(24) %0) #1 comdat align 2 {
  %2 = alloca ptr, align 8
  store ptr %0, ptr %2, align 8, !tbaa !38
  %3 = load ptr, ptr %2, align 8
  %4 = getelementptr inbounds nuw %"struct.std::_Vector_base.1", ptr %3, i32 0, i32 0
  %5 = getelementptr inbounds nuw %"struct.std::_Vector_base<std::pair<cv::Ptr<cv::detail::tracking::TrackerTargetState>, float>, std::allocator<std::pair<cv::Ptr<cv::detail::tracking::TrackerTargetState>, float>>>::_Vector_impl_data", ptr %4, i32 0, i32 0
  %6 = load ptr, ptr %5, align 8, !tbaa !45
  call void @_ZNSt6vectorISt4pairIN2cv3PtrINS1_6detail8tracking18TrackerTargetStateEEEfESaIS7_EE15_M_erase_at_endEPS7_(ptr noundef nonnull align 8 dereferenceable(24) %3, ptr noundef %6) #18
  ret void
}

; Function Attrs: mustprogress nounwind uwtable
define void @_ZN2cv6detail8tracking12TrackerModel25clearCurrentConfidenceMapEv(ptr noundef nonnull align 8 dereferenceable(100) %0) #1 align 2 {
  %2 = alloca ptr, align 8
  store ptr %0, ptr %2, align 8, !tbaa !3
  %3 = load ptr, ptr %2, align 8
  %4 = getelementptr inbounds nuw %"class.cv::detail::tracking::TrackerModel", ptr %3, i32 0, i32 3
  call void @_ZNSt6vectorISt4pairIN2cv3PtrINS1_6detail8tracking18TrackerTargetStateEEEfESaIS7_EE5clearEv(ptr noundef nonnull align 8 dereferenceable(24) %4) #18
  ret void
}