; Function Attrs: mustprogress nounwind uwtable
define void @_ZN2cv6detail8tracking12TrackerModel25clearCurrentConfidenceMapEv(ptr noundef nonnull align 8 captures(none) dereferenceable(100) %0) local_unnamed_addr #2 align 2 personality ptr @__gxx_personality_v0 {
  %2 = getelementptr inbounds nuw i8, ptr %0, i64 48
  %3 = load ptr, ptr %2, align 8, !tbaa !34
  %4 = getelementptr inbounds nuw i8, ptr %0, i64 56
  %5 = load ptr, ptr %4, align 8, !tbaa !35
  %.not.i.i = icmp eq ptr %5, %3
  br i1 %.not.i.i, label %_ZNSt6vectorISt4pairIN2cv3PtrINS1_6detail8tracking18TrackerTargetStateEEEfESaIS7_EE5clearEv.exit, label %.lr.ph.i.i.i.i.i

.lr.ph.i.i.i.i.i:                                 ; preds = %1, %_ZSt8_DestroyISt4pairIN2cv3PtrINS1_6detail8tracking18TrackerTargetStateEEEfEEvPT_.exit.i.i.i.i.i
  %.05.i.i.i.i.i = phi ptr [ %29, %_ZSt8_DestroyISt4pairIN2cv3PtrINS1_6detail8tracking18TrackerTargetStateEEEfEEvPT_.exit.i.i.i.i.i ], [ %3, %1 ]
  %6 = getelementptr inbounds nuw i8, ptr %.05.i.i.i.i.i, i64 8
  %7 = load ptr, ptr %6, align 8, !tbaa !36
  %.not.i.i.i.i.i.i.i.i.i = icmp eq ptr %7, null
  br i1 %.not.i.i.i.i.i.i.i.i.i, label %_ZSt8_DestroyISt4pairIN2cv3PtrINS1_6detail8tracking18TrackerTargetStateEEEfEEvPT_.exit.i.i.i.i.i, label %8

8:                                                ; preds = %.lr.ph.i.i.i.i.i
  %9 = getelementptr inbounds nuw i8, ptr %7, i64 8
  %10 = load atomic i64, ptr %9 acquire, align 8
  %11 = icmp eq i64 %10, 4294967297
  %12 = trunc i64 %10 to i32
  br i1 %11, label %13, label %21

13:                                               ; preds = %8
  store i32 0, ptr %9, align 8, !tbaa !37
  %14 = getelementptr inbounds nuw i8, ptr %7, i64 12
  store i32 0, ptr %14, align 4, !tbaa !39
  %15 = load ptr, ptr %7, align 8, !tbaa !3
  %16 = getelementptr inbounds nuw i8, ptr %15, i64 16
  %17 = load ptr, ptr %16, align 8
  tail call void %17(ptr noundef nonnull align 8 dereferenceable(16) %7) #22
  %18 = load ptr, ptr %7, align 8, !tbaa !3
  %19 = getelementptr inbounds nuw i8, ptr %18, i64 24
  %20 = load ptr, ptr %19, align 8
  tail call void %20(ptr noundef nonnull align 8 dereferenceable(16) %7) #22
  br label %_ZSt8_DestroyISt4pairIN2cv3PtrINS1_6detail8tracking18TrackerTargetStateEEEfEEvPT_.exit.i.i.i.i.i

21:                                               ; preds = %8
  %22 = load i8, ptr @__libc_single_threaded, align 1, !tbaa !40
  %.not.i.i.i.i.i.i.i.i.i.i = icmp eq i8 %22, 0
  br i1 %.not.i.i.i.i.i.i.i.i.i.i, label %25, label %23

23:                                               ; preds = %21
  %24 = add nsw i32 %12, -1
  store i32 %24, ptr %9, align 4, !tbaa !41
  br label %_ZN9__gnu_cxx27__exchange_and_add_dispatchEPii.exit.i.i.i.i.i.i.i.i.i.i

25:                                               ; preds = %21
  %26 = atomicrmw volatile add ptr %9, i32 -1 acq_rel, align 4
  br label %_ZN9__gnu_cxx27__exchange_and_add_dispatchEPii.exit.i.i.i.i.i.i.i.i.i.i

_ZN9__gnu_cxx27__exchange_and_add_dispatchEPii.exit.i.i.i.i.i.i.i.i.i.i: ; preds = %25, %23
  %.0.i.i.i.i.i.i.i.i.i.i.i = phi i32 [ %12, %23 ], [ %26, %25 ]
  %27 = icmp eq i32 %.0.i.i.i.i.i.i.i.i.i.i.i, 1
  br i1 %27, label %28, label %_ZSt8_DestroyISt4pairIN2cv3PtrINS1_6detail8tracking18TrackerTargetStateEEEfEEvPT_.exit.i.i.i.i.i, !prof !42

28:                                               ; preds = %_ZN9__gnu_cxx27__exchange_and_add_dispatchEPii.exit.i.i.i.i.i.i.i.i.i.i
  tail call void @_ZNSt16_Sp_counted_baseILN9__gnu_cxx12_Lock_policyE2EE24_M_release_last_use_coldEv(ptr noundef nonnull align 8 dereferenceable(16) %7) #22
  br label %_ZSt8_DestroyISt4pairIN2cv3PtrINS1_6detail8tracking18TrackerTargetStateEEEfEEvPT_.exit.i.i.i.i.i

_ZSt8_DestroyISt4pairIN2cv3PtrINS1_6detail8tracking18TrackerTargetStateEEEfEEvPT_.exit.i.i.i.i.i: ; preds = %28, %_ZN9__gnu_cxx27__exchange_and_add_dispatchEPii.exit.i.i.i.i.i.i.i.i.i.i, %13, %.lr.ph.i.i.i.i.i
  %29 = getelementptr inbounds nuw i8, ptr %.05.i.i.i.i.i, i64 24
  %.not.i.i.i.i.i = icmp eq ptr %29, %5
  br i1 %.not.i.i.i.i.i, label %_ZSt8_DestroyIPSt4pairIN2cv3PtrINS1_6detail8tracking18TrackerTargetStateEEEfES7_EvT_S9_RSaIT0_E.exit.i.i, label %.lr.ph.i.i.i.i.i, !llvm.loop !43

_ZSt8_DestroyIPSt4pairIN2cv3PtrINS1_6detail8tracking18TrackerTargetStateEEEfES7_EvT_S9_RSaIT0_E.exit.i.i: ; preds = %_ZSt8_DestroyISt4pairIN2cv3PtrINS1_6detail8tracking18TrackerTargetStateEEEfEEvPT_.exit.i.i.i.i.i
  store ptr %3, ptr %4, align 8, !tbaa !35
  br label %_ZNSt6vectorISt4pairIN2cv3PtrINS1_6detail8tracking18TrackerTargetStateEEEfESaIS7_EE5clearEv.exit

_ZNSt6vectorISt4pairIN2cv3PtrINS1_6detail8tracking18TrackerTargetStateEEEfESaIS7_EE5clearEv.exit: ; preds = %1, %_ZSt8_DestroyIPSt4pairIN2cv3PtrINS1_6detail8tracking18TrackerTargetStateEEEfES7_EvT_S9_RSaIT0_E.exit.i.i
  ret void
}